(iclustering_tree
Tree
p0
(dp1
S'lost_vals'
p2
NsS'item'
p3
(lp4
S'4->2'
p5
aS'3->6'
p6
asS'subtrees'
p7
(lp8
(iclustering_tree
Tree
p9
(dp10
g2
Nsg3
(lp11
S'1->5'
p12
aS'1->5'
p13
aS'5->8'
p14
aS'5->8'
p15
aS'8->2'
p16
aS'8->2'
p17
aS'8->2'
p18
aS'8->2'
p19
aS'8->2'
p20
aS'3->6'
p21
aS'3->6'
p22
aS'3->6'
p23
aS'3->6'
p24
aS'3->6'
p25
aS'3->6'
p26
aS'6->4'
p27
aS'6->4'
p28
aS'6->4'
p29
aS'6->4'
p30
aS'6->4'
p31
aS'4->2'
p32
aS'4->2'
p33
aS'4->2'
p34
aS'3->6'
p35
aS'3->6'
p36
aS'6->4'
p37
aS'4->2'
p38
aS'4->2'
p39
aS'4->2'
p40
aS'2->3'
p41
aS'3->6'
p42
aS'3->6'
p43
aS'6->4'
p44
aS'4->2'
p45
aS'4->2'
p46
aS'4->2'
p47
aS'4->2'
p48
aS'4->2'
p49
ag5
aS'2->3'
p50
aS'2->3'
p51
aS'2->3'
p52
aS'3->6'
p53
aS'3->6'
p54
ag6
aS'6->11'
p55
aS'6->11'
p56
aS'6->11'
p57
aS'11->end'
p58
asg7
(lp59
(iclustering_tree
Tree
p60
(dp61
g2
Nsg3
g11
sg7
(lp62
(iclustering_tree
Tree
p63
(dp64
g2
Nsg3
g11
sg7
(lp65
(iclustering_tree
Tree
p66
(dp67
g2
Nsg3
g11
sg7
(lp68
(iclustering_tree
Tree
p69
(dp70
g2
Nsg3
g11
sg7
(lp71
(iclustering_tree
Tree
p72
(dp73
g2
Nsg3
g11
sg7
NsS'node_name'
p74
S'L'
p75
sbasg74
S'V'
p76
sbasg74
S'AF'
p77
sbasg74
S'AK'
p78
sbasg74
S'AN'
p79
sbasg74
S'AP'
p80
sba(iclustering_tree
Tree
p81
(dp82
g2
Nsg3
(lp83
S'4->2'
p84
aS'3->6'
p85
asg7
(lp86
(iclustering_tree
Tree
p87
(dp88
g2
Nsg3
g83
sg7
(lp89
(iclustering_tree
Tree
p90
(dp91
g2
Nsg3
(lp92
S'3->6'
p93
ag84
aS'3->6'
p94
ag85
aS'11->end'
p95
asg7
(lp96
(iclustering_tree
Tree
p97
(dp98
g2
Nsg3
(lp99
S'2->3'
p100
ag93
aS'4->2'
p101
ag84
ag94
ag85
aS'3->6'
p102
aS'3->6'
p103
aS'3->6'
p104
aS'6->4'
p105
aS'4->2'
p106
ag95
asg7
(lp107
(iclustering_tree
Tree
p108
(dp109
g2
Nsg3
(lp110
g100
ag93
aS'3->6'
p111
aS'3->6'
p112
ag101
ag84
aS'3->6'
p113
ag94
ag85
aS'4->2'
p114
ag102
ag103
ag104
ag105
ag106
aS'11->end'
p115
aS'11->end'
p116
ag95
asg7
(lp117
(iclustering_tree
Tree
p118
(dp119
g2
Nsg3
(lp120
S'8->2'
p121
ag100
ag93
ag111
ag112
ag101
ag84
aS'3->6'
p122
aS'3->6'
p123
ag113
ag94
ag85
aS'6->4'
p124
aS'6->4'
p125
ag114
aS'4->2'
p126
aS'4->2'
p127
ag102
ag103
ag104
aS'6->4'
p128
ag105
ag106
ag115
ag116
ag95
asg7
Nsg74
S'Q'
p129
sba(iclustering_tree
Tree
p130
(dp131
g2
Nsg3
(lp132
S'start->5'
p133
aS'2->3'
p134
aS'2->3'
p135
aS'3->6'
p136
aS'3->6'
p137
aS'3->6'
p138
aS'6->4'
p139
aS'6->4'
p140
aS'4->2'
p141
aS'4->2'
p142
aS'2->3'
p143
aS'2->3'
p144
aS'3->6'
p145
aS'3->6'
p146
aS'3->6'
p147
aS'4->2'
p148
aS'2->3'
p149
aS'3->6'
p150
aS'3->6'
p151
aS'3->6'
p152
aS'6->4'
p153
aS'4->2'
p154
aS'2->3'
p155
aS'2->3'
p156
aS'6->11'
p157
aS'6->11'
p158
aS'11->end'
p159
aS'11->end'
p160
aS'11->end'
p161
asg7
Nsg74
S'S'
p162
sbasg74
S'W'
p163
sba(iclustering_tree
Tree
p164
(dp165
g2
Nsg3
(lp166
S'2->3'
p167
aS'3->6'
p168
aS'6->4'
p169
aS'6->4'
p170
aS'4->2'
p171
aS'4->2'
p172
aS'2->3'
p173
aS'2->3'
p174
aS'3->6'
p175
aS'3->6'
p176
aS'3->6'
p177
aS'3->6'
p178
aS'3->6'
p179
aS'6->4'
p180
aS'4->2'
p181
aS'4->2'
p182
aS'11->end'
p183
asg7
(lp184
(iclustering_tree
Tree
p185
(dp186
g2
Nsg3
(lp187
S'1->5'
p188
aS'1->5'
p189
aS'1->5'
p190
aS'1->5'
p191
aS'5->8'
p192
aS'5->8'
p193
aS'5->8'
p194
aS'5->8'
p195
aS'8->2'
p196
aS'8->2'
p197
ag167
aS'2->3'
p198
aS'2->3'
p199
aS'2->3'
p200
ag168
ag169
ag170
aS'4->8'
p201
aS'4->8'
p202
aS'8->2'
p203
aS'8->2'
p204
aS'3->6'
p205
ag171
ag172
aS'4->2'
p206
ag173
ag174
ag175
ag176
ag177
ag178
ag179
ag180
aS'6->4'
p207
aS'6->4'
p208
aS'6->4'
p209
ag181
ag182
aS'6->11'
p210
aS'6->11'
p211
ag183
asg7
Nsg74
S'K'
p212
sba(iclustering_tree
Tree
p213
(dp214
g2
Nsg3
(lp215
S'5->2'
p216
aS'2->3'
p217
aS'3->6'
p218
aS'3->6'
p219
aS'6->4'
p220
aS'6->4'
p221
aS'6->4'
p222
aS'6->4'
p223
aS'4->2'
p224
aS'4->2'
p225
aS'2->3'
p226
aS'2->3'
p227
aS'2->3'
p228
aS'3->6'
p229
aS'3->6'
p230
aS'3->6'
p231
aS'3->6'
p232
aS'3->6'
p233
aS'6->8'
p234
aS'6->8'
p235
aS'6->8'
p236
aS'6->8'
p237
aS'8->2'
p238
aS'8->2'
p239
aS'2->3'
p240
aS'3->6'
p241
aS'3->6'
p242
aS'6->4'
p243
aS'4->2'
p244
aS'4->2'
p245
aS'4->2'
p246
aS'2->3'
p247
aS'3->6'
p248
aS'11->end'
p249
asg7
Nsg74
S'H'
p250
sbasg74
S'AB'
p251
sbasg74
S'AF'
p252
sba(iclustering_tree
Tree
p253
(dp254
g2
Nsg3
(lp255
S'3->6'
p256
aS'6->4'
p257
aS'6->4'
p258
aS'6->4'
p259
aS'4->2'
p260
aS'3->6'
p261
aS'6->4'
p262
aS'3->6'
p263
aS'6->11'
p264
aS'6->11'
p265
aS'11->end'
p266
asg7
(lp267
(iclustering_tree
Tree
p268
(dp269
g2
Nsg3
(lp270
g256
ag257
ag258
ag259
ag260
ag261
ag262
ag263
aS'3->6'
p271
aS'3->6'
p272
aS'3->6'
p273
aS'3->6'
p274
ag264
ag265
ag266
asg7
(lp275
(iclustering_tree
Tree
p276
(dp277
g2
Nsg3
(lp278
S'1->5'
p279
aS'5->2'
p280
aS'2->3'
p281
aS'2->3'
p282
aS'3->6'
p283
aS'3->6'
p284
aS'3->6'
p285
aS'3->6'
p286
aS'6->4'
p287
aS'6->4'
p288
aS'6->4'
p289
aS'4->2'
p290
aS'3->6'
p291
aS'3->6'
p292
aS'3->6'
p293
aS'6->4'
p294
aS'4->2'
p295
aS'3->6'
p296
aS'3->6'
p297
aS'3->6'
p298
aS'3->6'
p299
aS'6->9'
p300
aS'9->6'
p301
aS'6->4'
p302
aS'3->6'
p303
aS'6->11'
p304
aS'6->11'
p305
aS'6->11'
p306
aS'6->11'
p307
aS'11->end'
p308
asg7
Nsg74
S'I'
p309
sba(iclustering_tree
Tree
p310
(dp311
g2
Nsg3
(lp312
S'1->5'
p313
aS'1->5'
p314
aS'8->2'
p315
aS'8->2'
p316
ag256
ag257
ag258
ag259
ag260
aS'4->2'
p317
ag261
aS'6->4'
p318
ag262
aS'4->2'
p319
aS'2->3'
p320
aS'3->6'
p321
ag263
ag271
ag272
aS'6->4'
p322
aS'6->4'
p323
aS'6->4'
p324
aS'4->2'
p325
aS'4->2'
p326
ag273
ag274
aS'6->11'
p327
aS'6->11'
p328
ag264
ag265
ag266
asg7
Nsg74
S'T'
p329
sba(iclustering_tree
Tree
p330
(dp331
g2
Nsg3
(lp332
S'5->2'
p333
aS'5->2'
p334
aS'2->3'
p335
aS'3->6'
p336
aS'3->6'
p337
aS'6->4'
p338
aS'6->4'
p339
aS'6->4'
p340
aS'4->2'
p341
aS'2->3'
p342
aS'3->6'
p343
aS'3->6'
p344
aS'3->6'
p345
aS'6->4'
p346
aS'6->4'
p347
aS'3->6'
p348
aS'3->6'
p349
aS'6->4'
p350
aS'6->4'
p351
aS'4->2'
p352
aS'4->2'
p353
aS'2->3'
p354
aS'3->6'
p355
aS'3->6'
p356
aS'3->6'
p357
aS'6->11'
p358
aS'6->11'
p359
aS'11->end'
p360
asg7
Nsg74
S'G'
p361
sbasg74
S'AD'
p362
sba(iclustering_tree
Tree
p363
(dp364
g2
Nsg3
(lp365
S'1->5'
p366
aS'2->3'
p367
aS'3->6'
p368
aS'6->4'
p369
aS'6->4'
p370
aS'6->4'
p371
aS'4->2'
p372
aS'4->2'
p373
aS'3->6'
p374
aS'3->6'
p375
aS'6->4'
p376
aS'6->4'
p377
aS'6->4'
p378
aS'6->4'
p379
aS'6->4'
p380
aS'6->4'
p381
aS'3->6'
p382
aS'6->11'
p383
aS'6->11'
p384
aS'6->11'
p385
aS'11->end'
p386
asg7
(lp387
(iclustering_tree
Tree
p388
(dp389
g2
Nsg3
(lp390
g366
aS'5->2'
p391
aS'2->3'
p392
aS'2->3'
p393
aS'2->3'
p394
aS'2->3'
p395
aS'2->3'
p396
aS'2->3'
p397
ag367
aS'3->6'
p398
ag368
ag369
ag370
ag371
aS'6->4'
p399
ag372
ag373
aS'3->6'
p400
aS'3->6'
p401
ag374
ag375
ag376
ag377
aS'4->2'
p402
aS'4->2'
p403
aS'2->3'
p404
ag378
ag379
ag380
ag381
aS'6->4'
p405
aS'6->4'
p406
aS'6->4'
p407
aS'4->2'
p408
aS'4->2'
p409
aS'2->3'
p410
ag382
aS'6->11'
p411
aS'6->11'
p412
aS'6->11'
p413
ag383
ag384
ag385
ag386
asg7
Nsg74
S'F'
p414
sba(iclustering_tree
Tree
p415
(dp416
g2
Nsg3
(lp417
S'start->1'
p418
aS'1->5'
p419
aS'5->8'
p420
aS'5->8'
p421
aS'8->2'
p422
aS'8->2'
p423
aS'8->2'
p424
aS'2->3'
p425
aS'3->6'
p426
aS'6->4'
p427
aS'6->4'
p428
aS'6->4'
p429
aS'4->2'
p430
aS'4->2'
p431
aS'4->2'
p432
aS'3->6'
p433
aS'3->6'
p434
aS'6->4'
p435
aS'6->4'
p436
aS'6->4'
p437
aS'6->4'
p438
aS'6->4'
p439
aS'4->8'
p440
aS'4->8'
p441
aS'4->8'
p442
aS'4->8'
p443
aS'8->2'
p444
aS'8->2'
p445
aS'8->2'
p446
aS'2->3'
p447
aS'2->3'
p448
aS'3->6'
p449
aS'3->6'
p450
aS'6->4'
p451
aS'3->6'
p452
aS'3->6'
p453
aS'3->6'
p454
aS'6->11'
p455
aS'6->11'
p456
aS'6->11'
p457
aS'11->end'
p458
asg7
Nsg74
S'O'
p459
sbasg74
S'Z'
p460
sbasg74
S'AG'
p461
sbasg74
S'AK'
p462
sba(iclustering_tree
Tree
p463
(dp464
g2
Nsg3
(lp465
S'2->3'
p466
aS'2->3'
p467
aS'4->2'
p468
aS'3->6'
p469
asg7
(lp470
(iclustering_tree
Tree
p471
(dp472
g2
Nsg3
(lp473
g466
aS'3->6'
p474
aS'6->9'
p475
aS'6->9'
p476
aS'6->9'
p477
aS'4->2'
p478
ag467
aS'3->6'
p479
aS'3->6'
p480
aS'3->6'
p481
aS'6->9'
p482
aS'9->4'
p483
aS'4->2'
p484
ag468
aS'2->3'
p485
ag469
asg7
(lp486
(iclustering_tree
Tree
p487
(dp488
g2
Nsg3
(lp489
S'1->5'
p490
ag466
ag474
aS'3->6'
p491
ag475
ag476
ag477
aS'9->4'
p492
ag478
ag467
ag479
ag480
ag481
ag482
ag483
ag484
ag468
ag485
aS'3->6'
p493
aS'6->9'
p494
aS'6->9'
p495
aS'4->2'
p496
aS'3->6'
p497
ag469
aS'6->9'
p498
aS'6->9'
p499
aS'9->11'
p500
aS'11->end'
p501
asg7
(lp502
(iclustering_tree
Tree
p503
(dp504
g2
Nsg3
(lp505
g490
ag466
aS'3->6'
p506
aS'3->6'
p507
aS'3->6'
p508
ag474
ag491
ag475
ag476
ag477
ag492
aS'4->2'
p509
ag478
ag467
aS'3->6'
p510
ag479
ag480
ag481
aS'6->9'
p511
ag482
ag483
ag484
ag468
ag485
aS'3->6'
p512
ag493
ag494
ag495
aS'6->9'
p513
ag496
ag497
ag469
aS'3->6'
p514
ag498
ag499
ag500
ag501
asg7
Nsg74
S'A'
p515
sba(iclustering_tree
Tree
p516
(dp517
g2
Nsg3
(lp518
S'start->1'
p519
aS'1->5'
p520
aS'1->5'
p521
aS'5->2'
p522
aS'5->2'
p523
aS'2->3'
p524
aS'3->6'
p525
aS'3->6'
p526
aS'6->9'
p527
aS'6->9'
p528
aS'6->9'
p529
aS'9->4'
p530
aS'9->4'
p531
aS'4->2'
p532
aS'2->3'
p533
aS'3->6'
p534
aS'3->6'
p535
aS'3->6'
p536
aS'6->9'
p537
aS'9->4'
p538
aS'4->2'
p539
aS'4->2'
p540
aS'4->2'
p541
aS'2->3'
p542
aS'3->6'
p543
aS'6->9'
p544
aS'6->9'
p545
aS'9->4'
p546
aS'9->4'
p547
aS'4->2'
p548
aS'2->3'
p549
aS'2->3'
p550
aS'2->3'
p551
aS'3->6'
p552
aS'3->6'
p553
aS'6->9'
p554
aS'6->9'
p555
aS'6->9'
p556
aS'9->11'
p557
aS'9->11'
p558
aS'11->end'
p559
asg7
Nsg74
S'D'
p560
sbasg74
S'Y'
p561
sba(iclustering_tree
Tree
p562
(dp563
g2
Nsg3
(lp564
S'2->3'
p565
aS'3->6'
p566
aS'6->9'
p567
aS'6->9'
p568
aS'6->9'
p569
aS'6->9'
p570
aS'4->2'
p571
aS'2->3'
p572
aS'2->3'
p573
aS'3->6'
p574
aS'3->6'
p575
aS'3->6'
p576
aS'6->9'
p577
aS'6->9'
p578
aS'6->9'
p579
aS'9->4'
p580
aS'9->4'
p581
aS'9->4'
p582
aS'4->2'
p583
aS'4->2'
p584
aS'2->3'
p585
aS'3->6'
p586
asg7
(lp587
(iclustering_tree
Tree
p588
(dp589
g2
Nsg3
(lp590
S'1->4'
p591
ag565
aS'2->3'
p592
aS'2->3'
p593
ag566
ag567
ag568
ag569
ag570
ag571
ag572
aS'3->6'
p594
aS'6->9'
p595
aS'6->9'
p596
aS'9->6'
p597
aS'6->2'
p598
aS'6->2'
p599
aS'6->2'
p600
aS'6->2'
p601
aS'6->2'
p602
ag573
ag574
ag575
ag576
ag577
ag578
ag579
ag580
ag581
ag582
aS'9->4'
p603
aS'9->4'
p604
ag583
ag584
ag585
ag586
aS'6->9'
p605
aS'6->9'
p606
aS'9->11'
p607
aS'9->11'
p608
aS'11->end'
p609
asg7
Nsg74
S'B'
p610
sba(iclustering_tree
Tree
p611
(dp612
g2
Nsg3
(lp613
S'5->8'
p614
aS'8->2'
p615
aS'8->2'
p616
aS'2->3'
p617
aS'3->6'
p618
aS'3->6'
p619
aS'3->6'
p620
aS'3->6'
p621
aS'6->9'
p622
aS'6->9'
p623
aS'6->9'
p624
aS'6->9'
p625
aS'9->4'
p626
aS'4->2'
p627
aS'4->2'
p628
aS'2->3'
p629
aS'2->3'
p630
aS'2->3'
p631
aS'3->6'
p632
aS'3->6'
p633
aS'3->6'
p634
aS'6->9'
p635
aS'9->4'
p636
aS'4->2'
p637
aS'4->2'
p638
aS'2->3'
p639
aS'2->3'
p640
aS'3->6'
p641
aS'6->9'
p642
aS'6->9'
p643
aS'9->4'
p644
aS'9->4'
p645
aS'9->4'
p646
aS'4->2'
p647
aS'4->2'
p648
aS'4->2'
p649
aS'2->3'
p650
aS'2->3'
p651
aS'3->6'
p652
aS'6->11'
p653
asg7
Nsg74
S'E'
p654
sbasg74
S'AA'
p655
sbasg74
S'AH'
p656
sba(iclustering_tree
Tree
p657
(dp658
g2
Nsg3
(lp659
S'2->3'
p660
aS'2->3'
p661
aS'4->2'
p662
aS'3->6'
p663
aS'11->end'
p664
asg7
(lp665
(iclustering_tree
Tree
p666
(dp667
g2
Nsg3
(lp668
S'8->2'
p669
aS'8->2'
p670
aS'3->6'
p671
ag660
ag661
aS'3->6'
p672
aS'3->6'
p673
aS'2->3'
p674
aS'2->3'
p675
aS'3->6'
p676
aS'4->2'
p677
ag662
aS'2->3'
p678
aS'2->3'
p679
ag663
aS'3->6'
p680
ag664
asg7
(lp681
(iclustering_tree
Tree
p682
(dp683
g2
Nsg3
(lp684
S'1->5'
p685
aS'1->5'
p686
aS'1->5'
p687
ag669
ag670
ag671
aS'3->6'
p688
aS'6->9'
p689
aS'6->9'
p690
aS'6->9'
p691
aS'9->4'
p692
aS'9->4'
p693
aS'9->4'
p694
aS'4->2'
p695
ag660
ag661
ag672
ag673
aS'6->9'
p696
aS'6->9'
p697
aS'6->9'
p698
aS'6->9'
p699
aS'6->9'
p700
aS'6->9'
p701
aS'6->9'
p702
aS'9->2'
p703
aS'9->2'
p704
aS'9->2'
p705
aS'2->4'
p706
aS'4->2'
p707
aS'4->2'
p708
ag674
ag675
ag676
aS'6->9'
p709
aS'6->9'
p710
ag677
ag662
aS'2->3'
p711
aS'2->3'
p712
aS'2->3'
p713
ag678
ag679
aS'3->6'
p714
aS'3->6'
p715
ag663
ag680
aS'6->9'
p716
aS'9->11'
p717
aS'9->11'
p718
ag664
asg7
Nsg74
S'C'
p719
sba(iclustering_tree
Tree
p720
(dp721
g2
Nsg3
(lp722
S'start->5'
p723
aS'start->5'
p724
aS'5->8'
p725
aS'8->2'
p726
aS'8->2'
p727
aS'3->6'
p728
aS'6->4'
p729
aS'6->4'
p730
aS'6->4'
p731
aS'4->8'
p732
aS'4->8'
p733
aS'4->8'
p734
aS'8->2'
p735
aS'8->2'
p736
aS'8->2'
p737
aS'8->2'
p738
aS'2->3'
p739
aS'2->3'
p740
aS'3->6'
p741
aS'3->6'
p742
aS'3->6'
p743
aS'3->6'
p744
aS'6->2'
p745
aS'6->2'
p746
aS'6->2'
p747
aS'6->2'
p748
aS'6->2'
p749
aS'6->2'
p750
aS'2->3'
p751
aS'2->3'
p752
aS'2->3'
p753
aS'3->6'
p754
aS'3->6'
p755
aS'3->6'
p756
aS'3->6'
p757
aS'3->6'
p758
aS'3->6'
p759
aS'6->4'
p760
aS'6->4'
p761
aS'6->4'
p762
aS'6->4'
p763
aS'6->4'
p764
aS'4->2'
p765
aS'4->2'
p766
aS'4->2'
p767
aS'2->3'
p768
aS'2->3'
p769
aS'3->6'
p770
aS'3->6'
p771
aS'11->end'
p772
asg7
Nsg74
S'M'
p773
sbasg74
S'AC'
p774
sba(iclustering_tree
Tree
p775
(dp776
g2
Nsg3
(lp777
S'2->3'
p778
aS'2->3'
p779
aS'3->6'
p780
aS'3->6'
p781
aS'3->6'
p782
aS'6->4'
p783
aS'4->2'
p784
aS'3->6'
p785
aS'6->4'
p786
aS'6->11'
p787
aS'6->11'
p788
aS'11->end'
p789
aS'11->end'
p790
aS'11->end'
p791
asg7
(lp792
(iclustering_tree
Tree
p793
(dp794
g2
Nsg3
(lp795
S'3->6'
p796
aS'3->6'
p797
aS'6->4'
p798
aS'6->4'
p799
ag778
ag779
ag780
ag781
ag782
ag783
ag784
aS'2->3'
p800
aS'2->3'
p801
aS'3->6'
p802
aS'3->6'
p803
ag785
ag786
aS'3->6'
p804
aS'6->11'
p805
aS'6->11'
p806
ag787
ag788
ag789
ag790
ag791
asg7
Nsg74
S'J'
p807
sba(iclustering_tree
Tree
p808
(dp809
g2
Nsg3
(lp810
S'1->5'
p811
aS'1->5'
p812
aS'2->3'
p813
aS'2->3'
p814
aS'3->6'
p815
aS'3->6'
p816
aS'3->6'
p817
aS'3->6'
p818
aS'6->4'
p819
aS'4->2'
p820
aS'4->2'
p821
aS'4->2'
p822
aS'3->6'
p823
aS'6->4'
p824
aS'4->2'
p825
aS'4->2'
p826
aS'2->3'
p827
aS'6->11'
p828
aS'6->11'
p829
aS'11->end'
p830
aS'11->end'
p831
aS'11->end'
p832
asg7
Nsg74
S'R'
p833
sbasg74
g76
sba(iclustering_tree
Tree
p834
(dp835
g2
Nsg3
(lp836
S'8->2'
p837
aS'2->3'
p838
aS'2->3'
p839
aS'6->4'
p840
aS'4->2'
p841
aS'3->6'
p842
aS'6->4'
p843
aS'6->4'
p844
aS'6->4'
p845
aS'4->2'
p846
aS'11->end'
p847
aS'11->end'
p848
asg7
(lp849
(iclustering_tree
Tree
p850
(dp851
g2
Nsg3
(lp852
S'1->5'
p853
aS'1->5'
p854
ag837
aS'8->2'
p855
ag838
ag839
aS'3->6'
p856
aS'3->6'
p857
ag840
ag841
aS'4->2'
p858
ag842
ag843
ag844
ag845
ag846
aS'2->3'
p859
aS'3->11'
p860
ag847
ag848
asg7
Nsg74
S'N'
p861
sba(iclustering_tree
Tree
p862
(dp863
g2
Nsg3
(lp864
S'start->5'
p865
aS'5->8'
p866
aS'8->2'
p867
aS'2->3'
p868
aS'2->3'
p869
aS'2->3'
p870
aS'6->4'
p871
aS'4->2'
p872
aS'2->3'
p873
aS'3->6'
p874
aS'6->4'
p875
aS'6->4'
p876
aS'3->6'
p877
aS'6->4'
p878
aS'4->2'
p879
aS'6->11'
p880
aS'6->11'
p881
aS'6->11'
p882
aS'11->end'
p883
aS'11->end'
p884
aS'11->end'
p885
aS'11->end'
p886
asg7
Nsg74
S'P'
p887
sbasg74
S'X'
p888
sbasg74
S'AI'
p889
sbasg74
S'AL'
p890
sbasg74
S'AN'
p891
sbasg74
S'AQ'
p892
sbasg74
S'0_unrooted'
p893
sb.