(dp0
(I-10
F-22.5
tp1
I14
s(I-20
F-12.5
tp2
I12
s(F-2.5
F-2.5
tp3
I18
s(I-20
I-5
tp4
I19
s(F-2.5
F-12.5
tp5
I18
s(F-12.5
I-25
tp6
I12
s(I-25
I-5
tp7
I19
s(I-15
I-15
tp8
I12
s(I-20
I-20
tp9
I12
s(F-17.5
I-15
tp10
I12
s(F-2.5
F-22.5
tp11
I18
s(I-5
F-12.5
tp12
I17
s(F-22.5
F-12.5
tp13
I12
s(I-15
I-10
tp14
I15
s(F-22.5
I-25
tp15
I12
s(I-10
F-17.5
tp16
I14
s(I-25
F-2.5
tp17
I18
s(I-25
I-10
tp18
I13
s(F-17.5
I-20
tp19
I12
s(F-2.5
I-25
tp20
I18
s(I-5
I-10
tp21
I17
s(F-17.5
I-25
tp22
I12
s(F-2.5
F-17.5
tp23
I18
s(F-22.5
I-5
tp24
I19
s(I-15
I-5
tp25
I18
s(I-5
I-5
tp26
I17
s(F-12.5
I-20
tp27
I12
s(I-10
I-5
tp28
I17
s(I-20
F-17.5
tp29
I12
s(I-15
F-17.5
tp30
I12
s(I-5
F-17.5
tp31
I17
s(F-22.5
F-17.5
tp32
I12
s(F-17.5
F-12.5
tp33
I12
s(F-12.5
I-10
tp34
I14
s(I-5
I-25
tp35
I17
s(I-25
F-12.5
tp36
I12
s(I-20
I-15
tp37
I12
s(I-15
I-20
tp38
I12
s(I-25
I-15
tp39
I12
s(I-10
F-12.5
tp40
I14
s(F-17.5
F-22.5
tp41
I12
s(F-17.5
I-10
tp42
I15
s(I-15
F-22.5
tp43
I12
s(F-12.5
I-5
tp44
I18
s(I-5
I-20
tp45
I17
s(I-5
F-22.5
tp46
I17
s(F-17.5
F-2.5
tp47
I18
s(F-2.5
I-10
tp48
I18
s(F-22.5
F-22.5
tp49
I12
s(I-25
F-17.5
tp50
I12
s(I-20
F-22.5
tp51
I12
s(I-25
I-20
tp52
I12
s(I-20
I-25
tp53
I12
s(F-17.5
I-5
tp54
I19
s(I-25
I-25
tp55
I12
s(I-5
F-2.5
tp56
I18
s(F-22.5
I-15
tp57
I12
s(F-2.5
I-20
tp58
I18
s(I-15
F-2.5
tp59
I18
s(I-5
I-15
tp60
I17
s(I-15
F-12.5
tp61
I12
s(I-10
I-25
tp62
I14
s(F-12.5
F-12.5
tp63
I12
s(F-2.5
I-15
tp64
I18
s(I-25
F-22.5
tp65
I12
s(F-22.5
F-2.5
tp66
I18
s(I-20
I-10
tp67
I15
s(F-2.5
I-5
tp68
I18
s(F-22.5
I-10
tp69
I15
s(I-10
I-15
tp70
I14
s(I-10
I-10
tp71
I14
s(F-12.5
F-22.5
tp72
I12
s(I-10
I-20
tp73
I14
s(I-20
F-2.5
tp74
I18
s(F-17.5
F-17.5
tp75
I12
s(F-12.5
F-17.5
tp76
I12
s(F-22.5
I-20
tp77
I12
s(F-12.5
I-15
tp78
I12
s(I-10
F-2.5
tp79
I18
s(F-12.5
F-2.5
tp80
I18
s(I-15
I-25
tp81
I12
s.